Certificate:
    Data:
        Version: 3 (0x2)
        Serial Number:
            2c:e5:fe:1a:06:4c:ab:87:58:dd:29:c8:9b:d4:a4:e7:14:8c:4d:0e
        Signature Algorithm: sha256WithRSAEncryption
        Issuer: CN=localhost
        Validity
            Not Before: Oct 14 17:44:58 2025 GMT
            Not After : Oct 14 17:44:58 2026 GMT
        Subject: CN=localhost
        Subject Public Key Info:
            Public Key Algorithm: rsaEncryption
                Public-Key: (2048 bit)
                Modulus:
                    00:ac:a0:fd:97:51:76:28:28:d6:00:c3:5f:05:ca:
                    5b:52:cf:39:02:b6:af:5e:5d:f7:f6:f2:db:53:e0:
                    22:7a:63:04:ea:4f:b1:e7:a3:ef:7f:d9:bd:bb:92:
                    f7:9e:cd:10:87:47:99:20:50:58:9c:ee:dd:a6:a6:
                    17:fb:65:be:0a:0f:93:83:29:cb:e8:79:48:04:d8:
                    1d:f4:de:48:c8:6e:0a:82:4f:7a:2e:9a:6e:4f:b2:
                    fa:64:99:7f:71:5e:02:fa:3c:3d:18:5c:2e:d6:7a:
                    8b:e1:ad:19:84:c8:49:f3:d2:d4:39:24:a4:19:a0:
                    89:48:bf:cc:5f:e7:d4:a5:45:2e:a0:57:fe:4b:80:
                    a0:03:8a:a8:76:8d:1e:79:9b:09:87:f9:24:90:8d:
                    11:2b:10:95:bd:d5:b7:33:60:2f:d5:f7:09:c8:8e:
                    32:7a:6c:e7:de:32:1c:de:6f:b5:72:de:21:df:69:
                    01:db:b0:c6:70:4e:9e:cc:b9:cb:ea:2f:cb:5a:58:
                    14:8e:96:9f:d2:fa:da:e5:8a:55:25:20:97:b1:ad:
                    08:9b:2f:08:cc:25:a3:05:3f:fc:75:03:a6:9e:2f:
                    ba:a8:78:70:f9:c3:ff:32:75:61:a7:04:90:7a:d9:
                    22:8b:8f:4e:79:55:52:74:10:6d:e6:c0:93:c8:90:
                    d4:b7
                Exponent: 65537 (0x10001)
        X509v3 extensions:
            X509v3 Subject Key Identifier: 
                C8:24:F1:D2:65:B7:A3:4D:92:56:E2:A3:49:5F:CD:4A:CF:70:A8:16
            X509v3 Authority Key Identifier: 
                C8:24:F1:D2:65:B7:A3:4D:92:56:E2:A3:49:5F:CD:4A:CF:70:A8:16
            X509v3 Basic Constraints: critical
                CA:TRUE
    Signature Algorithm: sha256WithRSAEncryption
    Signature Value:
        3e:21:5d:d7:8e:0e:49:a2:0a:9d:63:fe:19:58:89:1f:c4:02:
        96:02:82:32:18:46:88:9f:e1:51:9b:b7:eb:af:ab:45:fc:28:
        29:b7:40:9f:bc:ef:33:1a:b0:69:9a:7b:2f:93:24:d3:35:01:
        03:13:94:72:86:02:99:e3:18:46:ba:68:f7:71:be:72:64:70:
        45:50:53:cc:3c:a6:b6:69:5c:3d:e3:7b:18:8f:2e:7b:94:33:
        fe:31:a2:de:da:4e:20:b1:74:bc:81:15:d1:c5:8f:f8:fe:8b:
        33:b6:31:4c:49:d7:e0:44:bd:c1:f0:9f:06:ca:ed:0c:32:27:
        ab:96:8d:a5:b6:b0:09:43:b0:d6:d1:ae:5c:35:2b:9d:b0:e6:
        af:d4:47:20:67:47:4c:76:4e:70:eb:09:d8:48:23:e7:47:56:
        80:f9:39:11:8f:4c:23:c2:de:ba:9a:e3:ca:a0:2b:c2:3b:d7:
        13:39:27:e1:ce:c3:10:64:49:4f:21:d5:31:2b:92:bd:1a:04:
        9d:d6:c9:33:ed:4d:17:28:54:3a:5c:dc:41:db:1a:79:5d:88:
        d2:78:a2:2d:ac:73:17:69:04:95:9d:e5:9e:bb:e8:a3:9e:33:
        35:e9:91:3d:5b:fe:20:70:5a:80:cc:51:96:88:6d:b7:b5:ee:
        84:4d:05:0e
-----BEGIN CERTIFICATE-----
MIIDCTCCAfGgAwIBAgIULOX+GgZMq4dY3SnIm9Sk5xSMTQ4wDQYJKoZIhvcNAQEL
BQAwFDESMBAGA1UEAwwJbG9jYWxob3N0MB4XDTI1MTAxNDE3NDQ1OFoXDTI2MTAx
NDE3NDQ1OFowFDESMBAGA1UEAwwJbG9jYWxob3N0MIIBIjANBgkqhkiG9w0BAQEF
AAOCAQ8AMIIBCgKCAQEArKD9l1F2KCjWAMNfBcpbUs85AravXl339vLbU+AiemME
6k+x56Pvf9m9u5L3ns0Qh0eZIFBYnO7dpqYX+2W+Cg+TgynL6HlIBNgd9N5IyG4K
gk96LppuT7L6ZJl/cV4C+jw9GFwu1nqL4a0ZhMhJ89LUOSSkGaCJSL/MX+fUpUUu
oFf+S4CgA4qodo0eeZsJh/kkkI0RKxCVvdW3M2Av1fcJyI4yemzn3jIc3m+1ct4h
32kB27DGcE6ezLnL6i/LWlgUjpaf0vra5YpVJSCXsa0Imy8IzCWjBT/8dQOmni+6
qHhw+cP/MnVhpwSQetkii49OeVVSdBBt5sCTyJDUtwIDAQABo1MwUTAdBgNVHQ4E
FgQUyCTx0mW3o02SVuKjSV/NSs9wqBYwHwYDVR0jBBgwFoAUyCTx0mW3o02SVuKj
SV/NSs9wqBYwDwYDVR0TAQH/BAUwAwEB/zANBgkqhkiG9w0BAQsFAAOCAQEAPiFd
144OSaIKnWP+GViJH8QClgKCMhhGiJ/hUZu366+rRfwoKbdAn7zvMxqwaZp7L5Mk
0zUBAxOUcoYCmeMYRrpo93G+cmRwRVBTzDymtmlcPeN7GI8ue5Qz/jGi3tpOILF0
vIEV0cWP+P6LM7YxTEnX4ES9wfCfBsrtDDInq5aNpbawCUOw1tGuXDUrnbDmr9RH
IGdHTHZOcOsJ2Egj50dWgPk5EY9MI8LeuprjyqArwjvXEzkn4c7DEGRJTyHVMSuS
vRoEndbJM+1NFyhUOlzcQdsaeV2I0niiLaxzF2kElZ3lnrvoo54zNemRPVv+IHBa
gMxRlohtt7XuhE0FDg==
-----END CERTIFICATE-----
